; Function Attrs: null_pointer_is_valid sspstrong uwtable
define internal i32 @fsrvp_dissect_element_GetShareMapping_ShareMapping_(ptr noundef %0, i32 noundef %1, ptr noundef %2, ptr noundef %3, ptr noundef %4, ptr noundef %5) #0 {
  %7 = alloca ptr, align 8
  %8 = alloca i32, align 4
  %9 = load i32, ptr @hf_fsrvp_fsrvp_GetShareMapping_ShareMapping, align 4
  call void @llvm.lifetime.start.p0(i64 8, ptr nonnull %7) #4
  store ptr null, ptr %7, align 8
  call void @llvm.lifetime.start.p0(i64 4, ptr nonnull %8) #4
  %.not.i = icmp eq ptr %3, null
  br i1 %.not.i, label %13, label %10

10:                                               ; preds = %6
  %11 = load i32, ptr @ett_fsrvp_fssagent_share_mapping, align 4
  %12 = call ptr @proto_tree_add_subtree(ptr noundef nonnull %3, ptr noundef %0, i32 noundef %1, i32 noundef -1, i32 noundef %11, ptr noundef nonnull %7, ptr noundef nonnull @.str.94)
  br label %13

13:                                               ; preds = %10, %6
  %.027.i = phi ptr [ %12, %10 ], [ null, %6 ]
  %14 = call i32 @dissect_ndr_uint32(ptr noundef %0, i32 noundef %1, ptr noundef %2, ptr noundef %.027.i, ptr noundef %4, ptr noundef %5, i32 noundef %9, ptr noundef nonnull %8)
  %15 = getelementptr inbounds nuw i8, ptr %4, i64 64
  %16 = load ptr, ptr %15, align 8
  %17 = getelementptr inbounds nuw i8, ptr %16, i64 96
  %18 = load i32, ptr %17, align 8
  %19 = and i32 %18, 1
  %.not29.i = icmp eq i32 %19, 0
  %20 = getelementptr inbounds nuw i8, ptr %4, i64 25
  %21 = load i8, ptr %20, align 1, !range !6, !noundef !7
  %22 = trunc nuw i8 %21 to i1
  br i1 %.not29.i, label %28, label %23

23:                                               ; preds = %13
  %24 = and i32 %14, 7
  %.not31.i = icmp eq i32 %24, 0
  %or.cond.i = select i1 %22, i1 true, i1 %.not31.i
  br i1 %or.cond.i, label %33, label %25

25:                                               ; preds = %23
  %26 = and i32 %14, -8
  %27 = add i32 %26, 8
  br label %33

28:                                               ; preds = %13
  %29 = and i32 %14, 3
  %.not30.i = icmp eq i32 %29, 0
  %or.cond32.i = select i1 %22, i1 true, i1 %.not30.i
  br i1 %or.cond32.i, label %33, label %30

30:                                               ; preds = %28
  %31 = and i32 %14, -4
  %32 = add i32 %31, 4
  br label %33

33:                                               ; preds = %30, %28, %25, %23
  %.0.i = phi i32 [ %14, %23 ], [ %27, %25 ], [ %14, %28 ], [ %32, %30 ]
  %34 = load i32, ptr %8, align 4
  %cond.i = icmp eq i32 %34, 1
  br i1 %cond.i, label %35, label %fsrvp_dissect_fssagent_share_mapping.exit

35:                                               ; preds = %33
  %36 = load i32, ptr @hf_fsrvp_fssagent_share_mapping_ShareMapping1, align 4
  %37 = call i32 @dissect_ndr_embedded_pointer(ptr noundef %0, i32 noundef %.0.i, ptr noundef %2, ptr noundef %.027.i, ptr noundef %4, ptr noundef %5, ptr noundef nonnull @fsrvp_dissect_element_fssagent_share_mapping_ShareMapping1_, i32 noundef 2, ptr noundef nonnull @.str.95, i32 noundef %36)
  br label %fsrvp_dissect_fssagent_share_mapping.exit

fsrvp_dissect_fssagent_share_mapping.exit:        ; preds = %33, %35
  %.1.i = phi i32 [ %37, %35 ], [ %.0.i, %33 ]
  %38 = load ptr, ptr %7, align 8
  %39 = sub i32 %.1.i, %1
  call void @proto_item_set_len(ptr noundef %38, i32 noundef %39)
  call void @llvm.lifetime.end.p0(i64 4, ptr nonnull %8) #4
  call void @llvm.lifetime.end.p0(i64 8, ptr nonnull %7) #4
  ret i32 %.1.i
}